; Function Attrs: nounwind uwtable
define ptr @l_Lean_Meta_Tactic_Backtrack_backtrack(ptr noundef %0, ptr noundef %1, ptr noundef %2, ptr noundef %3, ptr noundef %4, ptr noundef %5, ptr noundef %6, ptr noundef %7, ptr noundef %8) local_unnamed_addr #0 {
  tail call void @lean_inc_heartbeat() #4
  %10 = tail call noalias ptr @mi_malloc_small(i64 noundef 32) #4
  %11 = icmp eq ptr %10, null
  br i1 %11, label %12, label %lean_alloc_closure.exit

12:                                               ; preds = %9
  tail call void @lean_internal_panic_out_of_memory() #5
  unreachable

lean_alloc_closure.exit:                          ; preds = %9
  %13 = getelementptr inbounds nuw i8, ptr %10, i64 4
  store i32 1, ptr %10, align 4, !tbaa !4
  store i32 -184549344, ptr %13, align 4
  %14 = getelementptr inbounds nuw i8, ptr %10, i64 8
  store ptr @l_Lean_Meta_Tactic_Backtrack_backtrack___lambda__1, ptr %14, align 8, !tbaa !10
  %15 = getelementptr inbounds nuw i8, ptr %10, i64 16
  store i16 8, ptr %15, align 8, !tbaa !14
  %16 = getelementptr inbounds nuw i8, ptr %10, i64 18
  store i16 1, ptr %16, align 2, !tbaa !14
  %17 = getelementptr inbounds nuw i8, ptr %10, i64 24
  store ptr %2, ptr %17, align 8, !tbaa !10
  %18 = ptrtoint ptr %3 to i64
  %19 = and i64 %18, 1
  %.not.i = icmp eq i64 %19, 0
  br i1 %.not.i, label %20, label %lean_inc_n.exit

20:                                               ; preds = %lean_alloc_closure.exit
  %.val.i.i = load i32, ptr %3, align 4, !tbaa !4
  %21 = icmp sgt i32 %.val.i.i, 0
  br i1 %21, label %22, label %24, !prof !9

22:                                               ; preds = %20
  %23 = add nuw i32 %.val.i.i, 2
  store i32 %23, ptr %3, align 4, !tbaa !4
  br label %lean_inc_n.exit

24:                                               ; preds = %20
  %.not.i.i = icmp eq i32 %.val.i.i, 0
  br i1 %.not.i.i, label %lean_inc_n.exit, label %25

25:                                               ; preds = %24
  tail call void @lean_inc_ref_n_cold(ptr noundef nonnull %3, i32 noundef 2) #4
  br label %lean_inc_n.exit

lean_inc_n.exit:                                  ; preds = %lean_alloc_closure.exit, %22, %24, %25
  %26 = tail call ptr @l___private_Lean_Meta_Tactic_Backtrack_0__Lean_Meta_Tactic_Backtrack_Backtrack_processIndependentGoals(ptr noundef %0, ptr noundef %1, ptr noundef nonnull %10, ptr noundef %3, ptr noundef %3, ptr noundef %3, ptr noundef %4, ptr noundef %5, ptr noundef %6, ptr noundef %7, ptr noundef %8)
  ret ptr %26
}